Certificate:
    Data:
        Version: 3 (0x2)
        Serial Number:
            37:18:f1:40:a7:88:e2:b6:88:9a:11:fb:e4:ea:a4:6c:a8:2b:ea:cd
        Signature Algorithm: sha256WithRSAEncryption
        Issuer: C=TN, ST=Tunis, O=INSAT, OU=Genie logiciel, CN=INSAT-GL/emailAddress=insat@gl.tn
        Validity
            Not Before: May 24 20:32:44 2021 GMT
            Not After : May 18 20:32:44 2046 GMT
        Subject: C=TN, ST=Tunis, O=INSAT, OU=Genie logiciel, CN=INSAT-GL/emailAddress=insat@gl.tn
        Subject Public Key Info:
            Public Key Algorithm: rsaEncryption
                RSA Public-Key: (2048 bit)
                Modulus:
                    00:e7:ba:25:3e:2b:3e:af:00:e1:ee:c1:d6:4e:34:
                    11:b4:a7:ed:63:1d:4e:b6:c5:43:9c:78:68:3a:ef:
                    a3:9d:fd:9b:b9:23:f3:9d:98:48:9a:80:a9:f3:94:
                    b4:5e:49:f7:07:f3:5a:6c:3a:5c:67:87:a7:9a:d3:
                    a8:aa:57:ec:90:ba:00:be:1b:dc:40:f5:42:3a:16:
                    40:d2:b7:4b:31:e5:dc:ed:c1:97:25:b5:a3:d1:c3:
                    62:c2:83:63:24:16:7b:d0:50:75:71:95:04:46:a7:
                    bc:e3:60:f8:dd:27:75:02:24:9a:0f:13:3f:79:10:
                    31:f2:f8:0e:b2:73:da:b4:98:01:e0:8f:7d:6b:c6:
                    3b:08:cf:ab:ff:00:11:de:fc:e9:a9:54:3d:ad:25:
                    34:81:72:a4:2d:12:00:04:ec:80:b8:7a:b0:32:78:
                    30:0b:f2:e1:c8:1c:58:ce:bf:c7:7e:c1:2c:d3:e1:
                    1e:62:d7:c6:ae:e3:b6:c0:60:e2:04:7a:e1:02:3e:
                    44:68:f4:0e:97:01:59:ac:06:9d:fc:3c:ae:3b:c1:
                    c6:74:c8:f8:c6:4b:9d:e6:73:6e:9b:e6:be:8c:09:
                    65:9f:c4:4d:5b:ac:b1:7b:65:c3:25:b3:96:df:14:
                    e2:53:8e:f4:af:71:b1:d9:e1:b9:40:c9:7c:72:01:
                    eb:0d
                Exponent: 65537 (0x10001)
        X509v3 extensions:
            X509v3 Basic Constraints: 
                CA:FALSE
            Netscape Comment: 
                OpenSSL Generated Certificate
            X509v3 Subject Key Identifier: 
                21:43:B2:CC:ED:21:77:22:EF:E6:B0:FA:38:0B:6F:5F:8B:9B:FA:F4
            X509v3 Authority Key Identifier: 
                keyid:21:43:B2:CC:ED:21:77:22:EF:E6:B0:FA:38:0B:6F:5F:8B:9B:FA:F4

    Signature Algorithm: sha256WithRSAEncryption
         ca:cc:69:b7:70:dd:3d:80:5c:d3:9e:91:6a:6f:94:74:36:e8:
         4a:a5:e0:78:a4:2c:59:04:1d:1a:93:e2:9e:c7:6a:65:80:20:
         7a:77:99:eb:46:cc:c0:ee:0d:02:9f:41:3f:48:d9:7e:d9:50:
         0f:fc:4d:2c:21:61:e1:fa:f0:00:72:2c:07:34:93:b5:c3:6f:
         c8:3f:61:bb:8a:21:e5:e3:68:a1:13:61:d6:db:4c:f9:df:c3:
         83:d5:1c:68:0a:b0:20:9b:da:80:f4:ee:30:aa:64:6e:e5:b5:
         06:bc:72:0c:e6:12:4a:af:7f:e1:41:dc:13:6e:4f:20:c6:e4:
         84:7e:da:7a:37:65:c6:89:a8:82:4a:c2:27:36:fe:8a:00:26:
         2d:7a:36:65:50:cf:2e:68:40:8a:84:77:bc:6d:02:d4:e4:8d:
         4c:91:20:88:b2:f0:2a:4b:c8:93:75:ef:ce:94:2e:36:07:03:
         e8:89:69:b2:36:87:87:69:85:42:1a:98:8b:1b:ef:cc:54:d1:
         b9:d6:4e:54:a0:cc:f2:07:ca:cf:75:d3:7a:6d:7f:29:8f:6b:
         d3:c6:01:09:91:00:bf:62:60:a5:32:4d:35:7b:0c:2c:6a:c9:
         79:5d:8e:e3:97:76:df:b9:7e:99:02:c7:ba:36:b6:b3:54:6c:
         32:bb:d7:6f
-----BEGIN CERTIFICATE-----
MIID8zCCAtugAwIBAgIUNxjxQKeI4raImhH75OqkbKgr6s0wDQYJKoZIhvcNAQEL
BQAwdTELMAkGA1UEBhMCVE4xDjAMBgNVBAgMBVR1bmlzMQ4wDAYDVQQKDAVJTlNB
VDEXMBUGA1UECwwOR2VuaWUgbG9naWNpZWwxETAPBgNVBAMMCElOU0FULUdMMRow
GAYJKoZIhvcNAQkBFgtpbnNhdEBnbC50bjAeFw0yMTA1MjQyMDMyNDRaFw00NjA1
MTgyMDMyNDRaMHUxCzAJBgNVBAYTAlROMQ4wDAYDVQQIDAVUdW5pczEOMAwGA1UE
CgwFSU5TQVQxFzAVBgNVBAsMDkdlbmllIGxvZ2ljaWVsMREwDwYDVQQDDAhJTlNB
VC1HTDEaMBgGCSqGSIb3DQEJARYLaW5zYXRAZ2wudG4wggEiMA0GCSqGSIb3DQEB
AQUAA4IBDwAwggEKAoIBAQDnuiU+Kz6vAOHuwdZONBG0p+1jHU62xUOceGg676Od
/Zu5I/OdmEiagKnzlLReSfcH81psOlxnh6ea06iqV+yQugC+G9xA9UI6FkDSt0sx
5dztwZcltaPRw2LCg2MkFnvQUHVxlQRGp7zjYPjdJ3UCJJoPEz95EDHy+A6yc9q0
mAHgj31rxjsIz6v/ABHe/OmpVD2tJTSBcqQtEgAE7IC4erAyeDAL8uHIHFjOv8d+
wSzT4R5i18au47bAYOIEeuECPkRo9A6XAVmsBp38PK47wcZ0yPjGS53mc26b5r6M
CWWfxE1brLF7ZcMls5bfFOJTjvSvcbHZ4blAyXxyAesNAgMBAAGjezB5MAkGA1Ud
EwQCMAAwLAYJYIZIAYb4QgENBB8WHU9wZW5TU0wgR2VuZXJhdGVkIENlcnRpZmlj
YXRlMB0GA1UdDgQWBBQhQ7LM7SF3Iu/msPo4C29fi5v69DAfBgNVHSMEGDAWgBQh
Q7LM7SF3Iu/msPo4C29fi5v69DANBgkqhkiG9w0BAQsFAAOCAQEAysxpt3DdPYBc
056Ram+UdDboSqXgeKQsWQQdGpPinsdqZYAgeneZ60bMwO4NAp9BP0jZftlQD/xN
LCFh4frwAHIsBzSTtcNvyD9hu4oh5eNooRNh1ttM+d/Dg9UcaAqwIJvagPTuMKpk
buW1BrxyDOYSSq9/4UHcE25PIMbkhH7aejdlxomogkrCJzb+igAmLXo2ZVDPLmhA
ioR3vG0C1OSNTJEgiLLwKkvIk3XvzpQuNgcD6IlpsjaHh2mFQhqYixvvzFTRudZO
VKDM8gfKz3XTem1/KY9r08YBCZEAv2JgpTJNNXsMLGrJeV2O45d237l+mQLHuja2
s1RsMrvXbw==
-----END CERTIFICATE-----
